; Function Attrs: mustprogress nofree nounwind null_pointer_is_valid sspstrong willreturn memory(read, inaccessiblemem: none) uwtable
define internal range(i32 0, 2) i32 @endpoint_match(ptr noundef readonly captures(none) %0, ptr noundef readonly captures(none) %1) #7 {
  %3 = getelementptr inbounds nuw i8, ptr %0, i64 24
  %4 = load i32, ptr %3, align 8
  %5 = getelementptr inbounds nuw i8, ptr %1, i64 24
  %6 = load i32, ptr %5, align 8
  %7 = icmp eq i32 %4, %6
  br i1 %7, label %8, label %addresses_equal.exit

8:                                                ; preds = %2
  %9 = load i32, ptr %0, align 8
  %10 = load i32, ptr %1, align 8
  %11 = icmp eq i32 %9, %10
  br i1 %11, label %12, label %addresses_equal.exit

12:                                               ; preds = %8
  %13 = getelementptr inbounds nuw i8, ptr %0, i64 4
  %14 = load i32, ptr %13, align 4
  %15 = getelementptr inbounds nuw i8, ptr %1, i64 4
  %16 = load i32, ptr %15, align 4
  %17 = icmp eq i32 %14, %16
  br i1 %17, label %18, label %addresses_equal.exit

18:                                               ; preds = %12
  %19 = icmp eq i32 %14, 0
  br i1 %19, label %addresses_equal.exit.thread, label %20

20:                                               ; preds = %18
  %21 = getelementptr inbounds nuw i8, ptr %0, i64 8
  %22 = load ptr, ptr %21, align 8
  %23 = getelementptr inbounds nuw i8, ptr %1, i64 8
  %24 = load ptr, ptr %23, align 8
  %25 = sext i32 %14 to i64
  %bcmp.i = tail call i32 @bcmp(ptr %22, ptr %24, i64 %25)
  %26 = icmp eq i32 %bcmp.i, 0
  br i1 %26, label %addresses_equal.exit.thread, label %addresses_equal.exit

addresses_equal.exit.thread:                      ; preds = %20, %18
  br label %addresses_equal.exit

addresses_equal.exit:                             ; preds = %2, %8, %12, %20, %addresses_equal.exit.thread
  %.0 = phi i32 [ 1, %addresses_equal.exit.thread ], [ 0, %20 ], [ 0, %12 ], [ 0, %8 ], [ 0, %2 ]
  ret i32 %.0
}